target datalayout = "e-m:e-p270:32:32-p271:32:32-p272:64:64-i64:64-i128:128-f80:128-n8:16:32:64-S128"
target triple = "x86_64-pc-linux-gnu"

%"class.llvm::Twine" = type <{ %"union.llvm::Twine::Child", %"union.llvm::Twine::Child", i8, i8, [6 x i8] }>
%"union.llvm::Twine::Child" = type { %struct.anon }
%struct.anon = type { ptr, i64 }
%"class.llvm::Value" = type { i8, i8, i16, i32, ptr, ptr }
%"class.llvm::Use" = type { ptr, ptr, ptr, ptr }

@.str.18 = private unnamed_addr constant [1 x i8] zeroinitializer, align 1
@.str.85 = private unnamed_addr constant [4 x i8] c"neg\00", align 1

; Function Attrs: mustprogress nounwind uwtable
define linkonce_odr hidden noundef ptr @_ZN4llvm16cast_convert_valINS_5ValueEPS1_S2_E4doitEPKS1_(ptr noundef %0) #1 comdat align 2 {
  %2 = alloca ptr, align 8
  store ptr %0, ptr %2, align 8
  %3 = load ptr, ptr %2, align 8
  ret ptr %3
}

; Function Attrs: mustprogress nounwind uwtable
define linkonce_odr hidden noundef ptr @_ZN4llvm8CastInfoINS_5ValueEPS1_vE6doCastERKS2_(ptr noundef nonnull align 8 dereferenceable(8) %0) #1 comdat align 2 {
  %2 = alloca ptr, align 8
  store ptr %0, ptr %2, align 8
  %3 = load ptr, ptr %2, align 8
  %4 = load ptr, ptr %3, align 8
  %5 = call noundef ptr @_ZN4llvm16cast_convert_valINS_5ValueEPS1_S2_E4doitEPKS1_(ptr noundef %4)
  ret ptr %5
}

; Function Attrs: mustprogress nounwind uwtable
define linkonce_odr hidden noundef nonnull align 8 dereferenceable(8) ptr @_ZN4llvm14ValueIsPresentIPNS_5ValueEvE11unwrapValueERS2_(ptr noundef nonnull align 8 dereferenceable(8) %0) #1 comdat align 2 {
  %2 = alloca ptr, align 8
  store ptr %0, ptr %2, align 8
  %3 = load ptr, ptr %2, align 8
  ret ptr %3
}

; Function Attrs: mustprogress nounwind uwtable
define linkonce_odr hidden noundef zeroext i1 @_ZN4llvm14ValueIsPresentIPNS_5ValueEvE9isPresentERKS2_(ptr noundef nonnull align 8 dereferenceable(8) %0) #1 comdat align 2 {
  %2 = alloca ptr, align 8
  store ptr %0, ptr %2, align 8
  %3 = load ptr, ptr %2, align 8
  %4 = load ptr, ptr %3, align 8
  %5 = icmp ne ptr %4, null
  ret i1 %5
}

; Function Attrs: mustprogress nounwind uwtable
define linkonce_odr hidden noundef nonnull align 8 dereferenceable(8) ptr @_ZN4llvm13simplify_typeIPNS_5ValueEE18getSimplifiedValueERS2_(ptr noundef nonnull align 8 dereferenceable(8) %0) #1 comdat align 2 {
  %2 = alloca ptr, align 8
  store ptr %0, ptr %2, align 8
  %3 = load ptr, ptr %2, align 8
  ret ptr %3
}

; Function Attrs: mustprogress nounwind uwtable
define linkonce_odr hidden noundef ptr @_ZN4llvm4castINS_5ValueES1_EEDcPT0_(ptr noundef %0) #1 comdat {
  %2 = alloca ptr, align 8
  store ptr %0, ptr %2, align 8
  %3 = call noundef ptr @_ZN4llvm8CastInfoINS_5ValueEPS1_vE6doCastERKS2_(ptr noundef nonnull align 8 dereferenceable(8) %2)
  ret ptr %3
}

; Function Attrs: mustprogress nounwind uwtable
define linkonce_odr hidden noundef nonnull align 8 dereferenceable(8) ptr @_ZN4llvm6detail11unwrapValueIPNS_5ValueEEEDcRT_(ptr noundef nonnull align 8 dereferenceable(8) %0) #1 comdat {
  %2 = alloca ptr, align 8
  store ptr %0, ptr %2, align 8
  %3 = load ptr, ptr %2, align 8
  %4 = call noundef nonnull align 8 dereferenceable(8) ptr @_ZN4llvm14ValueIsPresentIPNS_5ValueEvE11unwrapValueERS2_(ptr noundef nonnull align 8 dereferenceable(8) %3)
  ret ptr %4
}

; Function Attrs: mustprogress nounwind uwtable
define linkonce_odr hidden noundef ptr @_ZN4llvm8CastInfoINS_5ValueEPS1_vE10castFailedEv() #1 comdat align 2 {
  ret ptr null
}

; Function Attrs: mustprogress nounwind uwtable
define linkonce_odr hidden noundef zeroext i1 @_ZN4llvm6detail9isPresentIPNS_5ValueEEEbRKT_(ptr noundef nonnull align 8 dereferenceable(8) %0) #1 comdat {
  %2 = alloca ptr, align 8
  store ptr %0, ptr %2, align 8
  %3 = load ptr, ptr %2, align 8
  %4 = call noundef nonnull align 8 dereferenceable(8) ptr @_ZN4llvm13simplify_typeIPNS_5ValueEE18getSimplifiedValueERS2_(ptr noundef nonnull align 8 dereferenceable(8) %3)
  %5 = call noundef zeroext i1 @_ZN4llvm14ValueIsPresentIPNS_5ValueEvE9isPresentERKS2_(ptr noundef nonnull align 8 dereferenceable(8) %4)
  ret i1 %5
}

; Function Attrs: mustprogress nounwind uwtable
define linkonce_odr hidden noundef ptr @_ZN4llvm15cast_if_presentINS_5ValueES1_EEDaPT0_(ptr noundef %0) #1 comdat {
  %2 = alloca ptr, align 8
  %3 = alloca ptr, align 8
  store ptr %0, ptr %3, align 8
  %4 = call noundef zeroext i1 @_ZN4llvm6detail9isPresentIPNS_5ValueEEEbRKT_(ptr noundef nonnull align 8 dereferenceable(8) %3)
  br i1 %4, label %7, label %5

5:                                                ; preds = %1
  %6 = call noundef ptr @_ZN4llvm8CastInfoINS_5ValueEPS1_vE10castFailedEv()
  store ptr %6, ptr %2, align 8
  br label %11

7:                                                ; preds = %1
  %8 = call noundef nonnull align 8 dereferenceable(8) ptr @_ZN4llvm6detail11unwrapValueIPNS_5ValueEEEDcRT_(ptr noundef nonnull align 8 dereferenceable(8) %3)
  %9 = load ptr, ptr %8, align 8
  %10 = call noundef ptr @_ZN4llvm4castINS_5ValueES1_EEDcPT0_(ptr noundef %9)
  store ptr %10, ptr %2, align 8
  br label %11

11:                                               ; preds = %7, %5
  %12 = load ptr, ptr %2, align 8
  ret ptr %12
}

; Function Attrs: mustprogress nounwind uwtable
define linkonce_odr hidden noundef i32 @_ZNK4llvm4User14getNumOperandsEv(ptr noundef nonnull align 8 dereferenceable(24) %0) #1 comdat align 2 {
  %2 = alloca ptr, align 8
  store ptr %0, ptr %2, align 8
  %3 = load ptr, ptr %2, align 8
  %4 = getelementptr inbounds nuw %"class.llvm::Value", ptr %3, i32 0, i32 3
  %5 = load i32, ptr %4, align 4
  %6 = and i32 %5, 134217727
  ret i32 %6
}

; Function Attrs: mustprogress nounwind uwtable
define linkonce_odr noundef ptr @_ZN4llvm12cast_or_nullINS_5ValueES1_EEDaPT0_(ptr noundef %0) #1 comdat {
  %2 = alloca ptr, align 8
  store ptr %0, ptr %2, align 8
  %3 = load ptr, ptr %2, align 8
  %4 = call noundef ptr @_ZN4llvm15cast_if_presentINS_5ValueES1_EEDaPT0_(ptr noundef %3)
  ret ptr %4
}

; Function Attrs: mustprogress nounwind uwtable
define linkonce_odr hidden noundef ptr @_ZNK4llvm3Use3getEv(ptr noundef nonnull align 8 dereferenceable(32) %0) #1 comdat align 2 {
  %2 = alloca ptr, align 8
  store ptr %0, ptr %2, align 8
  %3 = load ptr, ptr %2, align 8
  %4 = getelementptr inbounds nuw %"class.llvm::Use", ptr %3, i32 0, i32 0
  %5 = load ptr, ptr %4, align 8
  ret ptr %5
}

; Function Attrs: mustprogress nounwind uwtable
define linkonce_odr hidden noundef ptr @_ZN4llvm21VariadicOperandTraitsINS_8CallBaseEE8op_beginEPS1_(ptr noundef %0) #1 comdat align 2 {
  %2 = alloca ptr, align 8
  store ptr %0, ptr %2, align 8
  %3 = load ptr, ptr %2, align 8
  %4 = load ptr, ptr %2, align 8
  %5 = call noundef i32 @_ZNK4llvm4User14getNumOperandsEv(ptr noundef nonnull align 8 dereferenceable(24) %4)
  %6 = zext i32 %5 to i64
  %7 = sub i64 0, %6
  %8 = getelementptr inbounds %"class.llvm::Use", ptr %3, i64 %7
  ret ptr %8
}

; Function Attrs: mustprogress nounwind uwtable
define linkonce_odr hidden noundef ptr @_ZN4llvm13IRBuilderBase13CreateICmpSLTEPNS_5ValueES2_RKNS_5TwineE(ptr noundef nonnull align 8 dereferenceable(128) %0, ptr noundef %1, ptr noundef %2, ptr noundef nonnull align 8 dereferenceable(34) %3) #1 comdat align 2 {
  %5 = alloca ptr, align 8
  %6 = alloca ptr, align 8
  %7 = alloca ptr, align 8
  %8 = alloca ptr, align 8
  store ptr %0, ptr %5, align 8
  store ptr %1, ptr %6, align 8
  store ptr %2, ptr %7, align 8
  store ptr %3, ptr %8, align 8
  %9 = load ptr, ptr %5, align 8
  %10 = load ptr, ptr %6, align 8
  %11 = load ptr, ptr %7, align 8
  %12 = load ptr, ptr %8, align 8
  %13 = call noundef ptr @_ZN4llvm13IRBuilderBase10CreateICmpENS_7CmpInst9PredicateEPNS_5ValueES4_RKNS_5TwineE(ptr noundef nonnull align 8 dereferenceable(128) %9, i32 noundef 40, ptr noundef %10, ptr noundef %11, ptr noundef nonnull align 8 dereferenceable(34) %12)
  ret ptr %13
}

; Function Attrs: mustprogress nounwind uwtable
define linkonce_odr hidden noundef ptr @_ZNK4llvm5Value7getTypeEv(ptr noundef nonnull align 8 dereferenceable(24) %0) #1 comdat align 2 {
  %2 = alloca ptr, align 8
  store ptr %0, ptr %2, align 8
  %3 = load ptr, ptr %2, align 8
  %4 = getelementptr inbounds nuw %"class.llvm::Value", ptr %3, i32 0, i32 4
  %5 = load ptr, ptr %4, align 8
  ret ptr %5
}

; Function Attrs: mustprogress nounwind uwtable
define linkonce_odr hidden noundef ptr @_ZNK4llvm8CallBase10getOperandEj(ptr noundef nonnull align 8 dereferenceable(88) %0, i32 noundef %1) #1 comdat align 2 {
  %3 = alloca ptr, align 8
  %4 = alloca i32, align 4
  store ptr %0, ptr %3, align 8
  store i32 %1, ptr %4, align 4
  %5 = load ptr, ptr %3, align 8
  %6 = call noundef ptr @_ZN4llvm21VariadicOperandTraitsINS_8CallBaseEE8op_beginEPS1_(ptr noundef %5)
  %7 = load i32, ptr %4, align 4
  %8 = zext i32 %7 to i64
  %9 = getelementptr inbounds %"class.llvm::Use", ptr %6, i64 %8
  %10 = call noundef ptr @_ZNK4llvm3Use3getEv(ptr noundef nonnull align 8 dereferenceable(32) %9)
  %11 = call noundef ptr @_ZN4llvm12cast_or_nullINS_5ValueES1_EEDaPT0_(ptr noundef %10)
  ret ptr %11
}

; Function Attrs: mustprogress nounwind uwtable
define linkonce_odr hidden noundef ptr @_ZN4llvm13IRBuilderBase12CreateNSWNegEPNS_5ValueERKNS_5TwineE(ptr noundef nonnull align 8 dereferenceable(128) %0, ptr noundef %1, ptr noundef nonnull align 8 dereferenceable(34) %2) #1 comdat align 2 {
  %4 = alloca ptr, align 8
  %5 = alloca ptr, align 8
  %6 = alloca ptr, align 8
  store ptr %0, ptr %4, align 8
  store ptr %1, ptr %5, align 8
  store ptr %2, ptr %6, align 8
  %7 = load ptr, ptr %4, align 8
  %8 = load ptr, ptr %5, align 8
  %9 = load ptr, ptr %6, align 8
  %10 = call noundef ptr @_ZN4llvm13IRBuilderBase9CreateNegEPNS_5ValueERKNS_5TwineEb(ptr noundef nonnull align 8 dereferenceable(128) %7, ptr noundef %8, ptr noundef nonnull align 8 dereferenceable(34) %9, i1 noundef zeroext true)
  ret ptr %10
}

; Function Attrs: mustprogress nounwind uwtable
define linkonce_odr hidden noundef ptr @_ZN4llvm13IRBuilderBase11CreateIsNegEPNS_5ValueERKNS_5TwineE(ptr noundef nonnull align 8 dereferenceable(128) %0, ptr noundef %1, ptr noundef nonnull align 8 dereferenceable(34) %2) #1 comdat align 2 {
  %4 = alloca ptr, align 8
  %5 = alloca ptr, align 8
  %6 = alloca ptr, align 8
  store ptr %0, ptr %4, align 8
  store ptr %1, ptr %5, align 8
  store ptr %2, ptr %6, align 8
  %7 = load ptr, ptr %4, align 8
  %8 = load ptr, ptr %5, align 8
  %9 = load ptr, ptr %5, align 8
  %10 = call noundef ptr @_ZNK4llvm5Value7getTypeEv(ptr noundef nonnull align 8 dereferenceable(24) %9)
  %11 = call noundef ptr @_ZN4llvm8Constant12getNullValueEPNS_4TypeE(ptr noundef %10)
  %12 = load ptr, ptr %6, align 8
  %13 = call noundef ptr @_ZN4llvm13IRBuilderBase13CreateICmpSLTEPNS_5ValueES2_RKNS_5TwineE(ptr noundef nonnull align 8 dereferenceable(128) %7, ptr noundef %8, ptr noundef %11, ptr noundef nonnull align 8 dereferenceable(34) %12)
  ret ptr %13
}

; Function Attrs: mustprogress nounwind uwtable
define linkonce_odr hidden void @_ZN4llvm5TwineC2EPKc(ptr noundef nonnull align 8 dereferenceable(34) %0, ptr noundef %1) unnamed_addr #1 comdat align 2 {
  %3 = alloca ptr, align 8
  %4 = alloca ptr, align 8
  store ptr %0, ptr %3, align 8
  store ptr %1, ptr %4, align 8
  %5 = load ptr, ptr %3, align 8
  %6 = getelementptr inbounds nuw %"class.llvm::Twine", ptr %5, i32 0, i32 2
  store i8 1, ptr %6, align 8
  %7 = getelementptr inbounds nuw %"class.llvm::Twine", ptr %5, i32 0, i32 3
  store i8 1, ptr %7, align 1
  %8 = load ptr, ptr %4, align 8
  %9 = getelementptr inbounds i8, ptr %8, i64 0
  %10 = load i8, ptr %9, align 1
  %11 = sext i8 %10 to i32
  %12 = icmp ne i32 %11, 0
  br i1 %12, label %13, label %17

13:                                               ; preds = %2
  %14 = load ptr, ptr %4, align 8
  %15 = getelementptr inbounds nuw %"class.llvm::Twine", ptr %5, i32 0, i32 0
  store ptr %14, ptr %15, align 8
  %16 = getelementptr inbounds nuw %"class.llvm::Twine", ptr %5, i32 0, i32 2
  store i8 3, ptr %16, align 8
  br label %19

17:                                               ; preds = %2
  %18 = getelementptr inbounds nuw %"class.llvm::Twine", ptr %5, i32 0, i32 2
  store i8 1, ptr %18, align 8
  br label %19

19:                                               ; preds = %17, %13
  ret void
}

; Function Attrs: mustprogress nounwind uwtable
define linkonce_odr hidden noundef ptr @_ZNK4llvm8CallBase13getArgOperandEj(ptr noundef nonnull align 8 dereferenceable(88) %0, i32 noundef %1) #1 comdat align 2 {
  %3 = alloca ptr, align 8
  %4 = alloca i32, align 4
  store ptr %0, ptr %3, align 8
  store i32 %1, ptr %4, align 4
  %5 = load ptr, ptr %3, align 8
  %6 = load i32, ptr %4, align 4
  %7 = call noundef ptr @_ZNK4llvm8CallBase10getOperandEj(ptr noundef nonnull align 8 dereferenceable(88) %5, i32 noundef %6)
  ret ptr %7
}

; Function Attrs: mustprogress nounwind uwtable
define dso_local noundef ptr @_ZN4llvm17LibCallSimplifier11optimizeAbsEPNS_8CallInstERNS_13IRBuilderBaseE(ptr noundef nonnull align 8 dereferenceable(104) %0, ptr noundef %1, ptr noundef nonnull align 8 dereferenceable(128) %2) #1 align 2 {
  %4 = alloca ptr, align 8
  %5 = alloca ptr, align 8
  %6 = alloca ptr, align 8
  %7 = alloca ptr, align 8
  %8 = alloca ptr, align 8
  %9 = alloca %"class.llvm::Twine", align 8
  %10 = alloca ptr, align 8
  %11 = alloca %"class.llvm::Twine", align 8
  %12 = alloca %"class.llvm::Twine", align 8
  store ptr %0, ptr %4, align 8
  store ptr %1, ptr %5, align 8
  store ptr %2, ptr %6, align 8
  %13 = load ptr, ptr %5, align 8
  %14 = call noundef ptr @_ZNK4llvm8CallBase13getArgOperandEj(ptr noundef nonnull align 8 dereferenceable(88) %13, i32 noundef 0)
  store ptr %14, ptr %7, align 8
  %15 = load ptr, ptr %6, align 8
  %16 = load ptr, ptr %7, align 8
  call void @_ZN4llvm5TwineC2EPKc(ptr noundef nonnull align 8 dereferenceable(34) %9, ptr noundef @.str.18)
  %17 = call noundef ptr @_ZN4llvm13IRBuilderBase11CreateIsNegEPNS_5ValueERKNS_5TwineE(ptr noundef nonnull align 8 dereferenceable(128) %15, ptr noundef %16, ptr noundef nonnull align 8 dereferenceable(34) %9)
  store ptr %17, ptr %8, align 8
  %18 = load ptr, ptr %6, align 8
  %19 = load ptr, ptr %7, align 8
  call void @_ZN4llvm5TwineC2EPKc(ptr noundef nonnull align 8 dereferenceable(34) %11, ptr noundef @.str.85)
  %20 = call noundef ptr @_ZN4llvm13IRBuilderBase12CreateNSWNegEPNS_5ValueERKNS_5TwineE(ptr noundef nonnull align 8 dereferenceable(128) %18, ptr noundef %19, ptr noundef nonnull align 8 dereferenceable(34) %11)
  store ptr %20, ptr %10, align 8
  %21 = load ptr, ptr %6, align 8
  %22 = load ptr, ptr %8, align 8
  %23 = load ptr, ptr %10, align 8
  %24 = load ptr, ptr %7, align 8
  call void @_ZN4llvm5TwineC2EPKc(ptr noundef nonnull align 8 dereferenceable(34) %12, ptr noundef @.str.18)
  %25 = call noundef ptr @_ZN4llvm13IRBuilderBase12CreateSelectEPNS_5ValueES2_S2_RKNS_5TwineEPNS_11InstructionE(ptr noundef nonnull align 8 dereferenceable(128) %21, ptr noundef %22, ptr noundef %23, ptr noundef %24, ptr noundef nonnull align 8 dereferenceable(34) %12, ptr noundef null)
  ret ptr %25
}