; Function Attrs: mustprogress nounwind uwtable
define dso_local noundef ptr @_ZN4llvm17LibCallSimplifier11optimizeAbsEPNS_8CallInstERNS_13IRBuilderBaseE(ptr nocapture nonnull readnone align 8 %0, ptr nocapture noundef readonly %1, ptr noundef nonnull align 8 dereferenceable(128) %2) local_unnamed_addr #0 align 2 {
  %4 = alloca %"class.llvm::Twine", align 8
  %5 = alloca %"class.llvm::Twine", align 8
  %6 = alloca %"class.llvm::Twine", align 8
  %7 = getelementptr inbounds nuw i8, ptr %1, i64 4
  %8 = load i32, ptr %7, align 4
  %9 = and i32 %8, 134217727
  %10 = zext nneg i32 %9 to i64
  %11 = sub nsw i64 0, %10
  %12 = getelementptr inbounds %"class.llvm::Use", ptr %1, i64 %11
  %13 = load ptr, ptr %12, align 8
  %14 = getelementptr inbounds nuw i8, ptr %4, i64 32
  %15 = getelementptr inbounds nuw i8, ptr %13, i64 8
  store i16 257, ptr %14, align 8
  %16 = load ptr, ptr %15, align 8
  %17 = tail call noundef ptr @_ZN4llvm8Constant12getNullValueEPNS_4TypeE(ptr noundef %16) #24
  %18 = call noundef ptr @_ZN4llvm13IRBuilderBase10CreateICmpENS_7CmpInst9PredicateEPNS_5ValueES4_RKNS_5TwineE(ptr noundef nonnull align 8 dereferenceable(128) %2, i32 noundef 40, ptr noundef %13, ptr noundef %17, ptr noundef nonnull align 8 dereferenceable(34) %4)
  %19 = getelementptr inbounds nuw i8, ptr %5, i64 32
  %20 = getelementptr inbounds nuw i8, ptr %5, i64 33
  store i8 1, ptr %20, align 1
  store ptr @.str.85, ptr %5, align 8
  store i8 3, ptr %19, align 8
  %21 = call noundef ptr @_ZN4llvm13IRBuilderBase9CreateNegEPNS_5ValueERKNS_5TwineEb(ptr noundef nonnull align 8 dereferenceable(128) %2, ptr noundef %13, ptr noundef nonnull align 8 dereferenceable(34) %5, i1 noundef zeroext true)
  %22 = getelementptr inbounds nuw i8, ptr %6, i64 32
  store i16 257, ptr %22, align 8
  %23 = call noundef ptr @_ZN4llvm13IRBuilderBase12CreateSelectEPNS_5ValueES2_S2_RKNS_5TwineEPNS_11InstructionE(ptr noundef nonnull align 8 dereferenceable(128) %2, ptr noundef %18, ptr noundef %21, ptr noundef %13, ptr noundef nonnull align 8 dereferenceable(34) %6, ptr noundef null) #24
  ret ptr %23
}